target datalayout = "e-m:e-p270:32:32-p271:32:32-p272:64:64-i64:64-i128:128-f80:128-n8:16:32:64-S128"
target triple = "x86_64-unknown-linux-gnu"

%struct.UResourceBundle = type { ptr, ptr, ptr, ptr, ptr, [64 x i8], i32, i32, i8, i8, i32, i32, i32, i32 }
%struct.UResourceDataEntry = type { ptr, ptr, ptr, ptr, ptr, %struct.ResourceData, [3 x i8], i32, i32 }
%struct.ResourceData = type { ptr, ptr, ptr, ptr, i32, i32, ptr, i32, i32, i8, i8, i8, i8 }

; Function Attrs: mustprogress uwtable
define internal noundef ptr @_ZN12_GLOBAL__N_116init_resb_resultEP18UResourceDataEntryjPKciPK15UResourceBundlePS4_P10UErrorCode(ptr noundef %dataEntry, i32 noundef %r, ptr noundef %key, i32 noundef %idx, ptr noundef %container, ptr noundef %resB, ptr noundef %status) #1 {
entry:
  %dataEntry.addr = alloca ptr, align 8
  %r.addr = alloca i32, align 4
  %key.addr = alloca ptr, align 8
  %idx.addr = alloca i32, align 4
  %container.addr = alloca ptr, align 8
  %resB.addr = alloca ptr, align 8
  %status.addr = alloca ptr, align 8
  store ptr %dataEntry, ptr %dataEntry.addr, align 8
  store i32 %r, ptr %r.addr, align 4
  store ptr %key, ptr %key.addr, align 8
  store i32 %idx, ptr %idx.addr, align 4
  store ptr %container, ptr %container.addr, align 8
  store ptr %resB, ptr %resB.addr, align 8
  store ptr %status, ptr %status.addr, align 8
  %0 = load ptr, ptr %dataEntry.addr, align 8
  %1 = load i32, ptr %r.addr, align 4
  %2 = load ptr, ptr %key.addr, align 8
  %3 = load i32, ptr %idx.addr, align 4
  %4 = load ptr, ptr %container.addr, align 8
  %fValidLocaleDataEntry = getelementptr inbounds %struct.UResourceBundle, ptr %4, i32 0, i32 3
  %5 = load ptr, ptr %fValidLocaleDataEntry, align 8
  %6 = load ptr, ptr %container.addr, align 8
  %fResPath = getelementptr inbounds %struct.UResourceBundle, ptr %6, i32 0, i32 4
  %7 = load ptr, ptr %fResPath, align 8
  %8 = load ptr, ptr %resB.addr, align 8
  %9 = load ptr, ptr %status.addr, align 8
  %call = call noundef ptr @_ZN12_GLOBAL__N_116init_resb_resultEP18UResourceDataEntryjPKciS1_S3_iP15UResourceBundleP10UErrorCode(ptr noundef %0, i32 noundef %1, ptr noundef %2, i32 noundef %3, ptr noundef %5, ptr noundef %7, i32 noundef 0, ptr noundef %8, ptr noundef %9)
  ret ptr %call
}

; Function Attrs: mustprogress nounwind uwtable
define linkonce_odr noundef nonnull align 8 dereferenceable(64) ptr @_ZNK15UResourceBundle10getResDataEv(ptr noundef nonnull align 8 dereferenceable(136) %this) #0 comdat align 2 {
entry:
  %this.addr = alloca ptr, align 8
  store ptr %this, ptr %this.addr, align 8
  %this1 = load ptr, ptr %this.addr, align 8
  %fData = getelementptr inbounds %struct.UResourceBundle, ptr %this1, i32 0, i32 1
  %0 = load ptr, ptr %fData, align 8
  %fData2 = getelementptr inbounds %struct.UResourceDataEntry, ptr %0, i32 0, i32 5
  ret ptr %fData2
}

; Function Attrs: mustprogress nounwind uwtable
define internal noundef signext i8 @_ZL9U_FAILURE10UErrorCode(i32 noundef %code) #0 {
entry:
  %code.addr = alloca i32, align 4
  store i32 %code, ptr %code.addr, align 4
  %0 = load i32, ptr %code.addr, align 4
  %cmp = icmp sgt i32 %0, 0
  %conv = zext i1 %cmp to i8
  ret i8 %conv
}

; Function Attrs: mustprogress uwtable
define ptr @ures_findSubResource_75(ptr noundef %resB, ptr noundef %path, ptr noundef %fillIn, ptr noundef %status) #1 {
entry:
  %retval = alloca ptr, align 8
  %resB.addr = alloca ptr, align 8
  %path.addr = alloca ptr, align 8
  %fillIn.addr = alloca ptr, align 8
  %status.addr = alloca ptr, align 8
  %res = alloca i32, align 4
  %result = alloca ptr, align 8
  %key = alloca ptr, align 8
  store ptr %resB, ptr %resB.addr, align 8
  store ptr %path, ptr %path.addr, align 8
  store ptr %fillIn, ptr %fillIn.addr, align 8
  store ptr %status, ptr %status.addr, align 8
  store i32 -1, ptr %res, align 4
  %0 = load ptr, ptr %fillIn.addr, align 8
  store ptr %0, ptr %result, align 8
  %1 = load ptr, ptr %status.addr, align 8
  %cmp = icmp eq ptr %1, null
  br i1 %cmp, label %if.then, label %lor.lhs.false

lor.lhs.false:                                    ; preds = %entry
  %2 = load ptr, ptr %status.addr, align 8
  %3 = load i32, ptr %2, align 4
  %call = call noundef signext i8 @_ZL9U_FAILURE10UErrorCode(i32 noundef %3)
  %tobool = icmp ne i8 %call, 0
  br i1 %tobool, label %if.then, label %if.end

if.then:                                          ; preds = %lor.lhs.false, %entry
  %4 = load ptr, ptr %result, align 8
  store ptr %4, ptr %retval, align 8
  br label %return

if.end:                                           ; preds = %lor.lhs.false
  br label %do.body

do.body:                                          ; preds = %do.cond, %if.end
  %5 = load ptr, ptr %resB.addr, align 8
  %call1 = call noundef nonnull align 8 dereferenceable(64) ptr @_ZNK15UResourceBundle10getResDataEv(ptr noundef nonnull align 8 dereferenceable(136) %5)
  %6 = load ptr, ptr %resB.addr, align 8
  %fRes = getelementptr inbounds %struct.UResourceBundle, ptr %6, i32 0, i32 7
  %7 = load i32, ptr %fRes, align 4
  %call2 = call i32 @res_findResource_75(ptr noundef %call1, i32 noundef %7, ptr noundef %path.addr, ptr noundef %key)
  store i32 %call2, ptr %res, align 4
  %8 = load i32, ptr %res, align 4
  %cmp3 = icmp ne i32 %8, -1
  br i1 %cmp3, label %if.then4, label %if.else

if.then4:                                         ; preds = %do.body
  %9 = load ptr, ptr %resB.addr, align 8
  %fData = getelementptr inbounds %struct.UResourceBundle, ptr %9, i32 0, i32 1
  %10 = load ptr, ptr %fData, align 8
  %11 = load i32, ptr %res, align 4
  %12 = load ptr, ptr %key, align 8
  %13 = load ptr, ptr %resB.addr, align 8
  %14 = load ptr, ptr %fillIn.addr, align 8
  %15 = load ptr, ptr %status.addr, align 8
  %call5 = call noundef ptr @_ZN12_GLOBAL__N_116init_resb_resultEP18UResourceDataEntryjPKciPK15UResourceBundlePS4_P10UErrorCode(ptr noundef %10, i32 noundef %11, ptr noundef %12, i32 noundef -1, ptr noundef %13, ptr noundef %14, ptr noundef %15)
  store ptr %call5, ptr %result, align 8
  %16 = load ptr, ptr %result, align 8
  store ptr %16, ptr %resB.addr, align 8
  br label %if.end6

if.else:                                          ; preds = %do.body
  %17 = load ptr, ptr %status.addr, align 8
  store i32 2, ptr %17, align 4
  br label %do.end

if.end6:                                          ; preds = %if.then4
  br label %do.cond

do.cond:                                          ; preds = %if.end6
  %18 = load ptr, ptr %path.addr, align 8
  %19 = load i8, ptr %18, align 1
  %tobool7 = icmp ne i8 %19, 0
  br i1 %tobool7, label %do.body, label %do.end, !llvm.loop !6

do.end:                                           ; preds = %do.cond, %if.else
  %20 = load ptr, ptr %result, align 8
  store ptr %20, ptr %retval, align 8
  br label %return

return:                                           ; preds = %do.end, %if.then
  %21 = load ptr, ptr %retval, align 8
  ret ptr %21
}