; Function Attrs: mustprogress uwtable
define noundef ptr @ures_findSubResource_75(ptr nocapture noundef readonly %resB, ptr noundef %path, ptr noundef %fillIn, ptr noundef %status) local_unnamed_addr #1 {
entry:
  %path.addr = alloca ptr, align 8
  %key = alloca ptr, align 8
  store ptr %path, ptr %path.addr, align 8
  %cmp = icmp eq ptr %status, null
  br i1 %cmp, label %return, label %lor.lhs.false

lor.lhs.false:                                    ; preds = %entry
  %0 = load i32, ptr %status, align 4
  %cmp.i = icmp slt i32 %0, 1
  br i1 %cmp.i, label %do.body.preheader, label %return

do.body.preheader:                                ; preds = %lor.lhs.false
  %fData.i13 = getelementptr inbounds i8, ptr %resB, i64 8
  %1 = load ptr, ptr %fData.i13, align 8
  %fData2.i14 = getelementptr inbounds i8, ptr %1, i64 40
  %fRes15 = getelementptr inbounds i8, ptr %resB, i64 108
  %2 = load i32, ptr %fRes15, align 4
  %call216 = call i32 @res_findResource_75(ptr noundef nonnull %fData2.i14, i32 noundef %2, ptr noundef nonnull %path.addr, ptr noundef nonnull %key)
  %cmp3.not17 = icmp eq i32 %call216, -1
  br i1 %cmp3.not17, label %if.else, label %if.then4

do.body:                                          ; preds = %if.then4
  %fData.i = getelementptr inbounds i8, ptr %call.i, i64 8
  %3 = load ptr, ptr %fData.i, align 8
  %fData2.i = getelementptr inbounds i8, ptr %3, i64 40
  %fRes = getelementptr inbounds i8, ptr %call.i, i64 108
  %4 = load i32, ptr %fRes, align 4
  %call2 = call i32 @res_findResource_75(ptr noundef nonnull %fData2.i, i32 noundef %4, ptr noundef nonnull %path.addr, ptr noundef nonnull %key)
  %cmp3.not = icmp eq i32 %call2, -1
  br i1 %cmp3.not, label %if.else, label %if.then4, !llvm.loop !7

if.then4:                                         ; preds = %do.body.preheader, %do.body
  %call220 = phi i32 [ %call2, %do.body ], [ %call216, %do.body.preheader ]
  %fData.i19 = phi ptr [ %fData.i, %do.body ], [ %fData.i13, %do.body.preheader ]
  %resB.addr.018 = phi ptr [ %call.i, %do.body ], [ %resB, %do.body.preheader ]
  %5 = load ptr, ptr %fData.i19, align 8
  %6 = load ptr, ptr %key, align 8
  %7 = getelementptr i8, ptr %resB.addr.018, i64 24
  %resB.addr.0.val = load ptr, ptr %7, align 8
  %8 = getelementptr i8, ptr %resB.addr.018, i64 32
  %resB.addr.0.val11 = load ptr, ptr %8, align 8
  %call.i = call fastcc noundef ptr @_ZN12_GLOBAL__N_116init_resb_resultEP18UResourceDataEntryjPKciS1_S3_iP15UResourceBundleP10UErrorCode(ptr noundef %5, i32 noundef %call220, ptr noundef %6, i32 noundef -1, ptr noundef %resB.addr.0.val, ptr noundef %resB.addr.0.val11, i32 noundef 0, ptr noundef %fillIn, ptr noundef nonnull %status)
  %9 = load ptr, ptr %path.addr, align 8
  %10 = load i8, ptr %9, align 1
  %tobool7.not = icmp eq i8 %10, 0
  br i1 %tobool7.not, label %return, label %do.body, !llvm.loop !7

if.else:                                          ; preds = %do.body, %do.body.preheader
  %result.0.lcssa = phi ptr [ %fillIn, %do.body.preheader ], [ %call.i, %do.body ]
  store i32 2, ptr %status, align 4
  br label %return

return:                                           ; preds = %if.then4, %if.else, %entry, %lor.lhs.false
  %retval.0 = phi ptr [ %fillIn, %lor.lhs.false ], [ %fillIn, %entry ], [ %result.0.lcssa, %if.else ], [ %call.i, %if.then4 ]
  ret ptr %retval.0
}